; Function Attrs: mustprogress uwtable
define noundef i32 @_ZNK6casadi5Norm14evalEPPKdPPdPxS4_(ptr noundef nonnull readonly align 8 captures(none) dereferenceable(64) %0, ptr noundef readonly captures(none) %1, ptr noundef readonly captures(none) %2, ptr readnone captures(none) %3, ptr readnone captures(none) %4) unnamed_addr #3 align 2 {
  %6 = getelementptr inbounds nuw i8, ptr %0, i64 32
  %7 = getelementptr inbounds nuw i8, ptr %0, i64 40
  %8 = load ptr, ptr %7, align 8, !tbaa !23
  %9 = load ptr, ptr %6, align 8, !tbaa !26
  %.not.i.i.i.not.i = icmp eq ptr %8, %9
  br i1 %.not.i.i.i.not.i, label %10, label %_ZNK6casadi6MXNode3depEx.exit.i

10:                                               ; preds = %5
  tail call void (ptr, ...) @_ZSt24__throw_out_of_range_fmtPKcz(ptr noundef nonnull @.str.7, i64 noundef 0, i64 noundef 0) #24
  unreachable

_ZNK6casadi6MXNode3depEx.exit.i:                  ; preds = %5
  %11 = tail call noundef nonnull align 8 dereferenceable(8) ptr @_ZNK6casadi2MX8sparsityEv(ptr noundef nonnull align 8 dereferenceable(8) %9)
  %12 = tail call noundef i64 @_ZNK6casadi8Sparsity3nnzEv(ptr noundef nonnull align 8 dereferenceable(8) %11)
  %13 = load ptr, ptr %1, align 8, !tbaa !27
  %.not.i.i = icmp ne ptr %13, null
  %14 = icmp sgt i64 %12, 0
  %or.cond.i.i = and i1 %14, %.not.i.i
  br i1 %or.cond.i.i, label %.lr.ph.i.i, label %_ZNK6casadi5Norm18eval_genIdEEiPPKT_PPS2_PxS6_.exit

.lr.ph.i.i:                                       ; preds = %_ZNK6casadi6MXNode3depEx.exit.i, %.lr.ph.i.i
  %.111.i.i = phi double [ %18, %.lr.ph.i.i ], [ 0.000000e+00, %_ZNK6casadi6MXNode3depEx.exit.i ]
  %.0610.i.i = phi i64 [ %19, %.lr.ph.i.i ], [ 0, %_ZNK6casadi6MXNode3depEx.exit.i ]
  %.079.i.i = phi ptr [ %15, %.lr.ph.i.i ], [ %13, %_ZNK6casadi6MXNode3depEx.exit.i ]
  %15 = getelementptr inbounds nuw i8, ptr %.079.i.i, i64 8
  %16 = load double, ptr %.079.i.i, align 8, !tbaa !29
  %17 = tail call double @llvm.fabs.f64(double %16)
  %18 = fadd double %.111.i.i, %17
  %19 = add nuw nsw i64 %.0610.i.i, 1
  %exitcond.not.i.i = icmp eq i64 %19, %12
  br i1 %exitcond.not.i.i, label %_ZNK6casadi5Norm18eval_genIdEEiPPKT_PPS2_PxS6_.exit, label %.lr.ph.i.i, !llvm.loop !35

_ZNK6casadi5Norm18eval_genIdEEiPPKT_PPS2_PxS6_.exit: ; preds = %.lr.ph.i.i, %_ZNK6casadi6MXNode3depEx.exit.i
  %.0.i.i = phi double [ 0.000000e+00, %_ZNK6casadi6MXNode3depEx.exit.i ], [ %18, %.lr.ph.i.i ]
  %20 = load ptr, ptr %2, align 8, !tbaa !27
  store double %.0.i.i, ptr %20, align 8, !tbaa !29
  ret i32 0
}